(dp0
S'reject-r1'
p1
I01
sS'tip-r1'
p2
I01
sS'power-r0'
p3
I01
sS'power-r1'
p4
I01
sS'flow_temp'
p5
I00
sS'reject-r0'
p6
I00
sS'gatevalve-r0'
p7
I00
sS'gatevalve-r1'
p8
I00
sS'turbo-r1'
p9
I00
sS'turbo-r0'
p10
I00
sS'flow'
p11
I00
sS'room_humidity'
p12
I00
sS'tip-r0'
p13
I01
sS'chiller'
p14
I00
sS'pressure-r1'
p15
I00
sS'pressure-r0'
p16
I01
sS'room_temp'
p17
I00
s.