(dp0
S'reject-r1'
p1
I01
sS'tip-r1'
p2
I01
sS'power-r0'
p3
I01
sS'power-r1'
p4
I01
sS'flow_temp'
p5
I01
sS'reject-r0'
p6
I01
sS'gatevalve-r0'
p7
I01
sS'gatevalve-r1'
p8
I01
sS'turbo-r1'
p9
I01
sS'turbo-r0'
p10
I01
sS'tip-r0'
p11
I01
sS'flow'
p12
I01
sS'room_humidity'
p13
I00
sS'chiller'
p14
I00
sS'pressure-r1'
p15
I01
sS'pressure-r0'
p16
I01
sS'room_temp'
p17
I01
s.