(lp0
S'xcu_r0__roughpressure1'
p1
aS'aitenv__aitenv'
p2
aS'xcu_r1__ionpump1'
p3
aS'xcu_r1__ionpump2'
p4
aS'aitroom__weatherduino3'
p5
aS'xcu_r1__pressure'
p6
aS'ccd_r1__ccdtemps'
p7
aS'xcu_r1__temps'
p8
aS'vistherm_r1__gauge'
p9
aS'xcu_r1__roughpressure1'
p10
aS'xcu_r1__gatevalve'
p11
aS'xcu_r1__coolertemps'
p12
aS'xcu_r1__heaters'
p13
aS'xcu_r1__turbovaw'
p14
aS'xcu_r1__turbotemps'
p15
aS'xcu_r1__turbospeed'
p16
a.